; Function Attrs: nounwind uwtable
define dso_local noundef i64 @array_remove(ptr noundef captures(none) %0) local_unnamed_addr #0 {
  %2 = getelementptr inbounds nuw i8, ptr %0, i64 40
  %3 = load i8, ptr %2, align 8, !range !4, !noundef !5
  %4 = trunc nuw i8 %3 to i1
  br i1 %4, label %5, label %7

5:                                                ; preds = %1
  %6 = getelementptr inbounds nuw i8, ptr %0, i64 28
  store i8 1, ptr %6, align 4
  br label %21

7:                                                ; preds = %1
  %8 = getelementptr inbounds nuw i8, ptr %0, i64 32
  %9 = getelementptr inbounds nuw i8, ptr %0, i64 56
  %10 = load i8, ptr %9, align 8, !range !4, !noundef !5
  %11 = trunc nuw i8 %10 to i1
  %12 = getelementptr inbounds nuw i8, ptr %0, i64 48
  %13 = load i64, ptr %12, align 8
  %14 = load i64, ptr %8, align 8
  %15 = inttoptr i64 %14 to ptr
  %16 = tail call ptr @pg_detoast_datum(ptr noundef %15) #18
  %17 = getelementptr inbounds nuw i8, ptr %0, i64 24
  %18 = load i32, ptr %17, align 8
  %19 = tail call fastcc ptr @array_replace_internal(ptr noundef %16, i64 noundef %13, i1 noundef zeroext %11, i64 noundef 0, i1 noundef zeroext true, i1 noundef zeroext true, i32 noundef %18, ptr noundef nonnull %0)
  %20 = ptrtoint ptr %19 to i64
  br label %21

21:                                               ; preds = %7, %5
  %.0 = phi i64 [ 0, %5 ], [ %20, %7 ]
  ret i64 %.0
}